target datalayout = "e-m:e-p270:32:32-p271:32:32-p272:64:64-i64:64-i128:128-f80:128-n8:16:32:64-S128"
target triple = "x86_64-pc-linux-gnu"

@.str.17 = private unnamed_addr constant [7 x i8] c"(null)\00", align 1
@.str.18 = private unnamed_addr constant [9 x i8] c"TEST_NOT\00", align 1
@.str.19 = private unnamed_addr constant [9 x i8] c"TEST_AND\00", align 1
@.str.20 = private unnamed_addr constant [8 x i8] c"TEST_OR\00", align 1
@.str.21 = private unnamed_addr constant [12 x i8] c"TEST_ALL_EQ\00", align 1
@.str.22 = private unnamed_addr constant [12 x i8] c"TEST_ANY_EQ\00", align 1
@.str.23 = private unnamed_addr constant [12 x i8] c"TEST_ALL_NE\00", align 1
@.str.24 = private unnamed_addr constant [12 x i8] c"TEST_ANY_NE\00", align 1
@.str.25 = private unnamed_addr constant [8 x i8] c"TEST_GT\00", align 1
@.str.26 = private unnamed_addr constant [8 x i8] c"TEST_GE\00", align 1
@.str.27 = private unnamed_addr constant [8 x i8] c"TEST_LT\00", align 1
@.str.28 = private unnamed_addr constant [8 x i8] c"TEST_LE\00", align 1
@.str.29 = private unnamed_addr constant [15 x i8] c"OP_BITWISE_AND\00", align 1
@.str.30 = private unnamed_addr constant [15 x i8] c"OP_UNARY_MINUS\00", align 1
@.str.31 = private unnamed_addr constant [7 x i8] c"OP_ADD\00", align 1
@.str.32 = private unnamed_addr constant [12 x i8] c"OP_SUBTRACT\00", align 1
@.str.33 = private unnamed_addr constant [12 x i8] c"OP_MULTIPLY\00", align 1
@.str.34 = private unnamed_addr constant [10 x i8] c"OP_DIVIDE\00", align 1
@.str.35 = private unnamed_addr constant [10 x i8] c"OP_MODULO\00", align 1
@.str.36 = private unnamed_addr constant [14 x i8] c"TEST_CONTAINS\00", align 1
@.str.37 = private unnamed_addr constant [13 x i8] c"TEST_MATCHES\00", align 1
@.str.38 = private unnamed_addr constant [8 x i8] c"TEST_IN\00", align 1
@.str.39 = private unnamed_addr constant [12 x i8] c"TEST_NOT_IN\00", align 1
@.str.40 = private unnamed_addr constant [16 x i8] c"(uninitialized)\00", align 1

; Function Attrs: nounwind null_pointer_is_valid sspstrong uwtable
define ptr @stnode_op_name(i32 noundef %0) #2 {
  %2 = alloca i32, align 4
  %3 = alloca ptr, align 8
  store i32 %0, ptr %2, align 4
  call void @llvm.lifetime.start.p0(i64 8, ptr %3) #9
  store ptr @.str.17, ptr %3, align 8
  %4 = load i32, ptr %2, align 4
  switch i32 %4, label %28 [
    i32 1, label %5
    i32 2, label %6
    i32 3, label %7
    i32 4, label %8
    i32 5, label %9
    i32 6, label %10
    i32 7, label %11
    i32 8, label %12
    i32 9, label %13
    i32 10, label %14
    i32 11, label %15
    i32 16, label %16
    i32 17, label %17
    i32 18, label %18
    i32 19, label %19
    i32 20, label %20
    i32 21, label %21
    i32 22, label %22
    i32 12, label %23
    i32 13, label %24
    i32 14, label %25
    i32 15, label %26
    i32 0, label %27
  ]

5:                                                ; preds = %1
  store ptr @.str.18, ptr %3, align 8
  br label %28

6:                                                ; preds = %1
  store ptr @.str.19, ptr %3, align 8
  br label %28

7:                                                ; preds = %1
  store ptr @.str.20, ptr %3, align 8
  br label %28

8:                                                ; preds = %1
  store ptr @.str.21, ptr %3, align 8
  br label %28

9:                                                ; preds = %1
  store ptr @.str.22, ptr %3, align 8
  br label %28

10:                                               ; preds = %1
  store ptr @.str.23, ptr %3, align 8
  br label %28

11:                                               ; preds = %1
  store ptr @.str.24, ptr %3, align 8
  br label %28

12:                                               ; preds = %1
  store ptr @.str.25, ptr %3, align 8
  br label %28

13:                                               ; preds = %1
  store ptr @.str.26, ptr %3, align 8
  br label %28

14:                                               ; preds = %1
  store ptr @.str.27, ptr %3, align 8
  br label %28

15:                                               ; preds = %1
  store ptr @.str.28, ptr %3, align 8
  br label %28

16:                                               ; preds = %1
  store ptr @.str.29, ptr %3, align 8
  br label %28

17:                                               ; preds = %1
  store ptr @.str.30, ptr %3, align 8
  br label %28

18:                                               ; preds = %1
  store ptr @.str.31, ptr %3, align 8
  br label %28

19:                                               ; preds = %1
  store ptr @.str.32, ptr %3, align 8
  br label %28

20:                                               ; preds = %1
  store ptr @.str.33, ptr %3, align 8
  br label %28

21:                                               ; preds = %1
  store ptr @.str.34, ptr %3, align 8
  br label %28

22:                                               ; preds = %1
  store ptr @.str.35, ptr %3, align 8
  br label %28

23:                                               ; preds = %1
  store ptr @.str.36, ptr %3, align 8
  br label %28

24:                                               ; preds = %1
  store ptr @.str.37, ptr %3, align 8
  br label %28

25:                                               ; preds = %1
  store ptr @.str.38, ptr %3, align 8
  br label %28

26:                                               ; preds = %1
  store ptr @.str.39, ptr %3, align 8
  br label %28

27:                                               ; preds = %1
  store ptr @.str.40, ptr %3, align 8
  br label %28

28:                                               ; preds = %1, %27, %26, %25, %24, %23, %22, %21, %20, %19, %18, %17, %16, %15, %14, %13, %12, %11, %10, %9, %8, %7, %6, %5
  %29 = load ptr, ptr %3, align 8
  call void @llvm.lifetime.end.p0(i64 8, ptr %3) #9
  ret ptr %29
}